; Function Attrs: nounwind uwtable
define dso_local void @aofManifestFree(ptr noundef %0) local_unnamed_addr #0 {
  %2 = load ptr, ptr %0, align 8, !tbaa !32
  %.not = icmp eq ptr %2, null
  br i1 %.not, label %6, label %3

3:                                                ; preds = %1
  %4 = load ptr, ptr %2, align 8, !tbaa !6
  %.not5.i = icmp eq ptr %4, null
  br i1 %.not5.i, label %aofInfoFree.exit, label %5

5:                                                ; preds = %3
  tail call void @sdsfree(ptr noundef nonnull %4) #20
  br label %aofInfoFree.exit

aofInfoFree.exit:                                 ; preds = %3, %5
  tail call void @zfree(ptr noundef nonnull %2) #20
  br label %6

6:                                                ; preds = %aofInfoFree.exit, %1
  %7 = getelementptr inbounds nuw i8, ptr %0, i64 8
  %8 = load ptr, ptr %7, align 8, !tbaa !24
  %.not9 = icmp eq ptr %8, null
  br i1 %.not9, label %10, label %9

9:                                                ; preds = %6
  tail call void @listRelease(ptr noundef nonnull %8) #20
  br label %10

10:                                               ; preds = %9, %6
  %11 = getelementptr inbounds nuw i8, ptr %0, i64 16
  %12 = load ptr, ptr %11, align 8, !tbaa !27
  %.not10 = icmp eq ptr %12, null
  br i1 %.not10, label %14, label %13

13:                                               ; preds = %10
  tail call void @listRelease(ptr noundef nonnull %12) #20
  br label %14

14:                                               ; preds = %13, %10
  tail call void @zfree(ptr noundef nonnull %0) #20
  ret void
}